; Function Attrs: nounwind uwtable
define void @Bal_ManFree(ptr noundef captures(none) %0) local_unnamed_addr #0 {
  %2 = getelementptr inbounds nuw i8, ptr %0, i64 40
  %3 = load ptr, ptr %2, align 8
  %4 = icmp eq ptr %3, null
  br i1 %4, label %Vec_PtrFreeFree.exit, label %5

5:                                                ; preds = %1
  %6 = getelementptr i8, ptr %3, i64 4
  %.val16.i.i = load i32, ptr %6, align 4
  %7 = icmp sgt i32 %.val16.i.i, 0
  br i1 %7, label %.lr.ph.i.i, label %Vec_PtrFreeData.exit.i

.lr.ph.i.i:                                       ; preds = %5
  %8 = getelementptr i8, ptr %3, i64 8
  br label %9

9:                                                ; preds = %13, %.lr.ph.i.i
  %.val19.i.i = phi i32 [ %.val16.i.i, %.lr.ph.i.i ], [ %.val.i.i, %13 ]
  %indvars.iv.i.i = phi i64 [ 0, %.lr.ph.i.i ], [ %indvars.iv.next.i.i, %13 ]
  %.val15.i.i = load ptr, ptr %8, align 8
  %10 = getelementptr inbounds nuw ptr, ptr %.val15.i.i, i64 %indvars.iv.i.i
  %11 = load ptr, ptr %10, align 8
  %switch.i.i = icmp ult ptr %11, inttoptr (i64 3 to ptr)
  br i1 %switch.i.i, label %13, label %12

12:                                               ; preds = %9
  tail call void @free(ptr noundef %11) #19
  %.val.pre.i.i = load i32, ptr %6, align 4
  br label %13

13:                                               ; preds = %12, %9
  %.val.i.i = phi i32 [ %.val19.i.i, %9 ], [ %.val.pre.i.i, %12 ]
  %indvars.iv.next.i.i = add nuw nsw i64 %indvars.iv.i.i, 1
  %14 = sext i32 %.val.i.i to i64
  %15 = icmp slt i64 %indvars.iv.next.i.i, %14
  br i1 %15, label %9, label %Vec_PtrFreeData.exit.i, !llvm.loop !7

Vec_PtrFreeData.exit.i:                           ; preds = %13, %5
  %16 = getelementptr inbounds nuw i8, ptr %3, i64 8
  %17 = load ptr, ptr %16, align 8
  %.not.i.i = icmp eq ptr %17, null
  br i1 %.not.i.i, label %Vec_PtrFree.exit.i, label %18

18:                                               ; preds = %Vec_PtrFreeData.exit.i
  tail call void @free(ptr noundef nonnull %17) #19
  br label %Vec_PtrFree.exit.i

Vec_PtrFree.exit.i:                               ; preds = %18, %Vec_PtrFreeData.exit.i
  tail call void @free(ptr noundef nonnull %3) #19
  br label %Vec_PtrFreeFree.exit

Vec_PtrFreeFree.exit:                             ; preds = %1, %Vec_PtrFree.exit.i
  %19 = getelementptr inbounds nuw i8, ptr %0, i64 32
  %20 = load ptr, ptr %19, align 8
  %21 = getelementptr inbounds nuw i8, ptr %20, i64 8
  %22 = load ptr, ptr %21, align 8
  %.not.i = icmp eq ptr %22, null
  br i1 %.not.i, label %24, label %23

23:                                               ; preds = %Vec_PtrFreeFree.exit
  tail call void @free(ptr noundef nonnull %22) #19
  br label %24

24:                                               ; preds = %Vec_PtrFreeFree.exit, %23
  tail call void @free(ptr noundef nonnull %20) #19
  tail call void @free(ptr noundef nonnull %0) #19
  ret void
}